; Function Attrs: mustprogress uwtable
define dso_local noundef zeroext i1 @_ZN10V3SplitVar11canSplitVarEPK6AstVar(ptr noundef %0) #3 align 2 {
  %2 = tail call noundef ptr @_ZN23SplitUnpackedVarVisitor17cannotSplitReasonEPK6AstVar(ptr noundef %0)
  %.not = icmp eq ptr %2, null
  br i1 %.not, label %5, label %3

3:                                                ; preds = %1
  %4 = tail call noundef ptr @_ZN21SplitPackedVarVisitor17cannotSplitReasonEPK6AstVarb(ptr noundef %0, i1 noundef zeroext false)
  %.not2 = icmp eq ptr %4, null
  br label %5

5:                                                ; preds = %3, %1
  %6 = phi i1 [ true, %1 ], [ %.not2, %3 ]
  ret i1 %6
}